target datalayout = "e-m:e-p270:32:32-p271:32:32-p272:64:64-i64:64-i128:128-f80:128-n8:16:32:64-S128"
target triple = "x86_64-unknown-linux-gnu"

%"struct.node::AssertionInfo" = type { ptr, ptr, ptr }
%"class.v8::IndirectHandleBase" = type { ptr }
%struct.uvwasi_mem_s = type { ptr, ptr, ptr, ptr, ptr }
%"class.node::wasi::WASI" = type { %"class.node::BaseObject", %"class.node::mem::NgLibMemoryManager", %struct.uvwasi_s, %"class.v8::Global.0", %struct.uvwasi_mem_s, i64 }
%"class.node::BaseObject" = type { %"class.node::MemoryRetainer", %"class.v8::Global", ptr, ptr }
%"class.node::MemoryRetainer" = type { ptr }
%"class.v8::Global" = type { %"class.v8::PersistentBase" }
%"class.v8::PersistentBase" = type { %"class.v8::IndirectHandleBase" }
%"class.node::mem::NgLibMemoryManager" = type { %"struct.node::mem::NgLibMemoryManagerBase" }
%"struct.node::mem::NgLibMemoryManagerBase" = type { ptr }
%struct.uvwasi_s = type { ptr, i32, ptr, ptr, i32, i32, ptr, ptr, i32, ptr, ptr }
%"class.v8::Global.0" = type { %"class.v8::PersistentBase.1" }
%"class.v8::PersistentBase.1" = type { %"class.v8::IndirectHandleBase" }

@_ZZNK4node4wasi4WASI18CheckAllocatedSizeEmE4args = internal constant %"struct.node::AssertionInfo" { ptr @.str.9, ptr @.str.10, ptr @.str.11 }, align 8

; Function Attrs: mustprogress nounwind uwtable
define dso_local void @_ZNK4node4wasi4WASI18CheckAllocatedSizeEm(ptr noundef nonnull align 8 dereferenceable(176) %this, i64 noundef %previous_size) #4 align 2 {
entry:
  %this.addr = alloca ptr, align 8
  %previous_size.addr = alloca i64, align 8
  store ptr %this, ptr %this.addr, align 8
  store i64 %previous_size, ptr %previous_size.addr, align 8
  %this1 = load ptr, ptr %this.addr, align 8
  br label %do.body

do.body:                                          ; preds = %entry
  %current_uvwasi_memory_ = getelementptr inbounds %"class.node::wasi::WASI", ptr %this1, i32 0, i32 5
  %0 = load i64, ptr %current_uvwasi_memory_, align 8
  %1 = load i64, ptr %previous_size.addr, align 8
  %cmp = icmp uge i64 %0, %1
  %lnot = xor i1 %cmp, true
  %lnot2 = xor i1 %lnot, true
  %lnot3 = xor i1 %lnot2, true
  br i1 %lnot3, label %if.then, label %if.end

if.then:                                          ; preds = %do.body
  br label %do.body4

do.body4:                                         ; preds = %if.then
  call void @_ZN4node6AssertERKNS_13AssertionInfoE(ptr noundef nonnull align 8 dereferenceable(24) @_ZZNK4node4wasi4WASI18CheckAllocatedSizeEmE4args)
  call void @abort() #17
  unreachable

do.end:                                           ; No predecessors!
  br label %if.end

if.end:                                           ; preds = %do.end, %do.body
  br label %do.end5

do.end5:                                          ; preds = %if.end
  ret void
}