; Function Attrs: mustprogress nounwind uwtable
define dso_local void @_ZNK4node4wasi4WASI18CheckAllocatedSizeEm(ptr nocapture noundef nonnull readonly align 8 dereferenceable(176) %this, i64 noundef %previous_size) local_unnamed_addr #3 align 2 {
entry:
  %current_uvwasi_memory_ = getelementptr inbounds i8, ptr %this, i64 168
  %0 = load i64, ptr %current_uvwasi_memory_, align 8
  %cmp.not = icmp ult i64 %0, %previous_size
  br i1 %cmp.not, label %do.body4, label %do.end5

do.body4:                                         ; preds = %entry
  tail call void @_ZN4node6AssertERKNS_13AssertionInfoE(ptr noundef nonnull align 8 dereferenceable(24) @_ZZNK4node4wasi4WASI18CheckAllocatedSizeEmE4args) #24
  tail call void @abort() #25
  unreachable

do.end5:                                          ; preds = %entry
  ret void
}